target datalayout = "e-m:e-p270:32:32-p271:32:32-p272:64:64-i64:64-i128:128-f80:128-n8:16:32:64-S128"
target triple = "x86_64-pc-linux-gnu"

%"class.grpc_core::PolymorphicRefCount" = type { ptr }
%"class.grpc_core::RefCount" = type { %"struct.std::atomic" }
%"struct.std::atomic" = type { %"struct.std::__atomic_base" }
%"struct.std::__atomic_base" = type { i64 }
%class.grpc_ssl_server_credentials = type { %struct.grpc_server_credentials, %struct.grpc_ssl_server_config, %struct.grpc_ssl_server_certificate_config_fetcher }
%struct.grpc_server_credentials = type { %"class.grpc_core::RefCounted.13", %struct.grpc_auth_metadata_processor }
%"class.grpc_core::RefCounted.13" = type { %"class.grpc_core::PolymorphicRefCount", %"class.grpc_core::RefCount" }
%struct.grpc_auth_metadata_processor = type { ptr, ptr, ptr }
%struct.grpc_ssl_server_config = type <{ ptr, i64, ptr, i32, i32, i32, [4 x i8] }>
%struct.grpc_ssl_server_certificate_config_fetcher = type { ptr, ptr }
%struct.grpc_ssl_server_credentials_options = type { i32, ptr, ptr }
%struct.grpc_ssl_server_certificate_config = type { ptr, i64, ptr }

@_ZTVN9grpc_core19PolymorphicRefCountE = linkonce_odr unnamed_addr constant { [4 x ptr] } { [4 x ptr] [ptr null, ptr @_ZTIN9grpc_core19PolymorphicRefCountE, ptr @_ZN9grpc_core19PolymorphicRefCountD2Ev, ptr @_ZN9grpc_core19PolymorphicRefCountD0Ev] }, comdat, align 8
@_ZTV23grpc_server_credentials = linkonce_odr unnamed_addr constant { [6 x ptr] } { [6 x ptr] [ptr null, ptr @_ZTI23grpc_server_credentials, ptr @_ZN23grpc_server_credentialsD2Ev, ptr @_ZN23grpc_server_credentialsD0Ev, ptr @__cxa_pure_virtual, ptr @__cxa_pure_virtual] }, comdat, align 8

; Function Attrs: mustprogress nounwind uwtable
define linkonce_odr void @_ZNSt13__atomic_baseIlEC2El(ptr noundef nonnull align 8 dereferenceable(8) %0, i64 noundef %1) unnamed_addr #8 comdat align 2 {
  %3 = alloca ptr, align 8
  %4 = alloca i64, align 8
  store ptr %0, ptr %3, align 8, !tbaa !207
  store i64 %1, ptr %4, align 8, !tbaa !173
  %5 = load ptr, ptr %3, align 8
  %6 = getelementptr inbounds nuw %"struct.std::__atomic_base", ptr %5, i32 0, i32 0
  %7 = load i64, ptr %4, align 8, !tbaa !173
  store i64 %7, ptr %6, align 8, !tbaa !209
  ret void
}

; Function Attrs: mustprogress nounwind uwtable
define linkonce_odr void @_ZNSt6atomicIlEC2El(ptr noundef nonnull align 8 dereferenceable(8) %0, i64 noundef %1) unnamed_addr #8 comdat align 2 {
  %3 = alloca ptr, align 8
  %4 = alloca i64, align 8
  store ptr %0, ptr %3, align 8, !tbaa !205
  store i64 %1, ptr %4, align 8, !tbaa !173
  %5 = load ptr, ptr %3, align 8
  %6 = load i64, ptr %4, align 8, !tbaa !173
  call void @_ZNSt13__atomic_baseIlEC2El(ptr noundef nonnull align 8 dereferenceable(8) %5, i64 noundef %6) #3
  ret void
}

; Function Attrs: mustprogress nounwind uwtable
define linkonce_odr void @_ZN9grpc_core19PolymorphicRefCountD2Ev(ptr noundef nonnull align 8 dereferenceable(8) %0) unnamed_addr #8 comdat align 2 {
  %2 = alloca ptr, align 8
  store ptr %0, ptr %2, align 8, !tbaa !201
  ret void
}

; Function Attrs: mustprogress nounwind uwtable
define linkonce_odr void @_ZN9grpc_core8RefCountC2ElPKc(ptr noundef nonnull align 8 dereferenceable(8) %0, i64 noundef %1, ptr noundef %2) unnamed_addr #8 comdat align 2 {
  %4 = alloca ptr, align 8
  %5 = alloca i64, align 8
  %6 = alloca ptr, align 8
  store ptr %0, ptr %4, align 8, !tbaa !203
  store i64 %1, ptr %5, align 8, !tbaa !173
  store ptr %2, ptr %6, align 8, !tbaa !8
  %7 = load ptr, ptr %4, align 8
  %8 = getelementptr inbounds nuw %"class.grpc_core::RefCount", ptr %7, i32 0, i32 0
  %9 = load i64, ptr %5, align 8, !tbaa !173
  call void @_ZNSt6atomicIlEC2El(ptr noundef nonnull align 8 dereferenceable(8) %8, i64 noundef %9) #3
  ret void
}

; Function Attrs: inlinehint mustprogress nounwind uwtable
define linkonce_odr void @_ZN9grpc_core19PolymorphicRefCountC2Ev(ptr noundef nonnull align 8 dereferenceable(8) %0) unnamed_addr #6 comdat align 2 {
  %2 = alloca ptr, align 8
  store ptr %0, ptr %2, align 8, !tbaa !201
  %3 = load ptr, ptr %2, align 8
  store ptr getelementptr inbounds inrange(-16, 16) ({ [4 x ptr] }, ptr @_ZTVN9grpc_core19PolymorphicRefCountE, i32 0, i32 0, i32 2), ptr %3, align 8, !tbaa !11
  ret void
}

; Function Attrs: mustprogress uwtable
define linkonce_odr void @_ZN9grpc_core10RefCountedI23grpc_server_credentialsNS_19PolymorphicRefCountENS_11UnrefDeleteEEC2EPKcl(ptr noundef nonnull align 8 dereferenceable(16) %0, ptr noundef %1, i64 noundef %2) unnamed_addr #4 comdat align 2 personality ptr @__gxx_personality_v0 {
  %4 = alloca ptr, align 8
  %5 = alloca ptr, align 8
  %6 = alloca i64, align 8
  %7 = alloca ptr, align 8
  %8 = alloca i32, align 4
  store ptr %0, ptr %4, align 8, !tbaa !178
  store ptr %1, ptr %5, align 8, !tbaa !8
  store i64 %2, ptr %6, align 8, !tbaa !173
  %9 = load ptr, ptr %4, align 8
  call void @_ZN9grpc_core19PolymorphicRefCountC2Ev(ptr noundef nonnull align 8 dereferenceable(8) %9) #3
  store ptr getelementptr inbounds inrange(-16, 16) ({ [4 x ptr] }, ptr @_ZTVN9grpc_core10RefCountedI23grpc_server_credentialsNS_19PolymorphicRefCountENS_11UnrefDeleteEEE, i32 0, i32 0, i32 2), ptr %9, align 8, !tbaa !11
  %10 = getelementptr inbounds nuw %"class.grpc_core::RefCounted.13", ptr %9, i32 0, i32 1
  %11 = load i64, ptr %6, align 8, !tbaa !173
  %12 = load ptr, ptr %5, align 8, !tbaa !8
  invoke void @_ZN9grpc_core8RefCountC2ElPKc(ptr noundef nonnull align 8 dereferenceable(8) %10, i64 noundef %11, ptr noundef %12)
          to label %13 unwind label %14

13:                                               ; preds = %3
  ret void

14:                                               ; preds = %3
  %15 = landingpad { ptr, i32 }
          cleanup
  %16 = extractvalue { ptr, i32 } %15, 0
  store ptr %16, ptr %7, align 8
  %17 = extractvalue { ptr, i32 } %15, 1
  store i32 %17, ptr %8, align 4
  call void @_ZN9grpc_core19PolymorphicRefCountD2Ev(ptr noundef nonnull align 8 dereferenceable(8) %9) #3
  br label %18

18:                                               ; preds = %14
  %19 = load ptr, ptr %7, align 8
  %20 = load i32, ptr %8, align 4
  %21 = insertvalue { ptr, i32 } poison, ptr %19, 0
  %22 = insertvalue { ptr, i32 } %21, i32 %20, 1
  resume { ptr, i32 } %22
}

; Function Attrs: mustprogress uwtable
define void @_ZN27grpc_ssl_server_credentials12build_configEPKcP26grpc_ssl_pem_key_cert_pairm40grpc_ssl_client_certificate_request_type(ptr noundef nonnull align 8 dereferenceable(96) %0, ptr noundef %1, ptr noundef %2, i64 noundef %3, i32 noundef %4) #4 align 2 {
  %6 = alloca ptr, align 8
  %7 = alloca ptr, align 8
  %8 = alloca ptr, align 8
  %9 = alloca i64, align 8
  %10 = alloca i32, align 4
  store ptr %0, ptr %6, align 8, !tbaa !138
  store ptr %1, ptr %7, align 8, !tbaa !8
  store ptr %2, ptr %8, align 8, !tbaa !10
  store i64 %3, ptr %9, align 8, !tbaa !173
  store i32 %4, ptr %10, align 4, !tbaa !174
  %11 = load ptr, ptr %6, align 8
  %12 = load i32, ptr %10, align 4, !tbaa !174
  %13 = getelementptr inbounds nuw %class.grpc_ssl_server_credentials, ptr %11, i32 0, i32 1
  %14 = getelementptr inbounds nuw %struct.grpc_ssl_server_config, ptr %13, i32 0, i32 3
  store i32 %12, ptr %14, align 8, !tbaa !148
  %15 = load ptr, ptr %7, align 8, !tbaa !8
  %16 = call ptr @gpr_strdup(ptr noundef %15)
  %17 = getelementptr inbounds nuw %class.grpc_ssl_server_credentials, ptr %11, i32 0, i32 1
  %18 = getelementptr inbounds nuw %struct.grpc_ssl_server_config, ptr %17, i32 0, i32 2
  store ptr %16, ptr %18, align 8, !tbaa !175
  %19 = load ptr, ptr %8, align 8, !tbaa !10
  %20 = load i64, ptr %9, align 8, !tbaa !173
  %21 = call noundef ptr @_Z35grpc_convert_grpc_to_tsi_cert_pairsPK26grpc_ssl_pem_key_cert_pairm(ptr noundef %19, i64 noundef %20)
  %22 = getelementptr inbounds nuw %class.grpc_ssl_server_credentials, ptr %11, i32 0, i32 1
  %23 = getelementptr inbounds nuw %struct.grpc_ssl_server_config, ptr %22, i32 0, i32 0
  store ptr %21, ptr %23, align 8, !tbaa !176
  %24 = load i64, ptr %9, align 8, !tbaa !173
  %25 = getelementptr inbounds nuw %class.grpc_ssl_server_credentials, ptr %11, i32 0, i32 1
  %26 = getelementptr inbounds nuw %struct.grpc_ssl_server_config, ptr %25, i32 0, i32 1
  store i64 %24, ptr %26, align 8, !tbaa !177
  ret void
}

; Function Attrs: inlinehint mustprogress nounwind uwtable
define linkonce_odr void @_ZN42grpc_ssl_server_certificate_config_fetcherC2Ev(ptr noundef nonnull align 8 dereferenceable(16) %0) unnamed_addr #6 comdat align 2 {
  %2 = alloca ptr, align 8
  store ptr %0, ptr %2, align 8, !tbaa !171
  %3 = load ptr, ptr %2, align 8
  %4 = getelementptr inbounds nuw %struct.grpc_ssl_server_certificate_config_fetcher, ptr %3, i32 0, i32 0
  store ptr null, ptr %4, align 8, !tbaa !172
  ret void
}

; Function Attrs: inlinehint mustprogress nounwind uwtable
define linkonce_odr void @_ZN22grpc_ssl_server_configC2Ev(ptr noundef nonnull align 8 dereferenceable(36) %0) unnamed_addr #6 comdat align 2 {
  %2 = alloca ptr, align 8
  store ptr %0, ptr %2, align 8, !tbaa !163
  %3 = load ptr, ptr %2, align 8
  %4 = getelementptr inbounds nuw %struct.grpc_ssl_server_config, ptr %3, i32 0, i32 0
  store ptr null, ptr %4, align 8, !tbaa !165
  %5 = getelementptr inbounds nuw %struct.grpc_ssl_server_config, ptr %3, i32 0, i32 1
  store i64 0, ptr %5, align 8, !tbaa !166
  %6 = getelementptr inbounds nuw %struct.grpc_ssl_server_config, ptr %3, i32 0, i32 2
  store ptr null, ptr %6, align 8, !tbaa !167
  %7 = getelementptr inbounds nuw %struct.grpc_ssl_server_config, ptr %3, i32 0, i32 3
  store i32 0, ptr %7, align 8, !tbaa !168
  %8 = getelementptr inbounds nuw %struct.grpc_ssl_server_config, ptr %3, i32 0, i32 4
  store i32 0, ptr %8, align 4, !tbaa !169
  %9 = getelementptr inbounds nuw %struct.grpc_ssl_server_config, ptr %3, i32 0, i32 5
  store i32 1, ptr %9, align 8, !tbaa !170
  ret void
}

; Function Attrs: inlinehint mustprogress uwtable
define linkonce_odr void @_ZN23grpc_server_credentialsC2Ev(ptr noundef nonnull align 8 dereferenceable(40) %0) unnamed_addr #5 comdat align 2 {
  %2 = alloca ptr, align 8
  store ptr %0, ptr %2, align 8, !tbaa !161
  %3 = load ptr, ptr %2, align 8
  call void @_ZN9grpc_core10RefCountedI23grpc_server_credentialsNS_19PolymorphicRefCountENS_11UnrefDeleteEEC2EPKcl(ptr noundef nonnull align 8 dereferenceable(16) %3, ptr noundef null, i64 noundef 1)
  store ptr getelementptr inbounds inrange(-16, 32) ({ [6 x ptr] }, ptr @_ZTV23grpc_server_credentials, i32 0, i32 0, i32 2), ptr %3, align 8, !tbaa !11
  %4 = getelementptr inbounds nuw %struct.grpc_server_credentials, ptr %3, i32 0, i32 1
  call void @llvm.memset.p0.i64(ptr align 8 %4, i8 0, i64 24, i1 false)
  ret void
}

; Function Attrs: mustprogress uwtable
define void @_ZN27grpc_ssl_server_credentialsC2ERK35grpc_ssl_server_credentials_options(ptr noundef nonnull align 8 dereferenceable(96) %0, ptr noundef nonnull align 8 dereferenceable(24) %1) unnamed_addr #4 align 2 personality ptr @__gxx_personality_v0 {
  %3 = alloca ptr, align 8
  %4 = alloca ptr, align 8
  %5 = alloca ptr, align 8
  %6 = alloca i32, align 4
  store ptr %0, ptr %3, align 8, !tbaa !138
  store ptr %1, ptr %4, align 8, !tbaa !140
  %7 = load ptr, ptr %3, align 8
  call void @_ZN23grpc_server_credentialsC2Ev(ptr noundef nonnull align 8 dereferenceable(40) %7)
  store ptr getelementptr inbounds inrange(-16, 32) ({ [6 x ptr] }, ptr @_ZTV27grpc_ssl_server_credentials, i32 0, i32 0, i32 2), ptr %7, align 8, !tbaa !11
  %8 = getelementptr inbounds nuw %class.grpc_ssl_server_credentials, ptr %7, i32 0, i32 1
  call void @_ZN22grpc_ssl_server_configC2Ev(ptr noundef nonnull align 8 dereferenceable(36) %8) #3
  %9 = getelementptr inbounds nuw %class.grpc_ssl_server_credentials, ptr %7, i32 0, i32 2
  call void @_ZN42grpc_ssl_server_certificate_config_fetcherC2Ev(ptr noundef nonnull align 8 dereferenceable(16) %9) #3
  %10 = load ptr, ptr %4, align 8, !tbaa !140
  %11 = getelementptr inbounds nuw %struct.grpc_ssl_server_credentials_options, ptr %10, i32 0, i32 2
  %12 = load ptr, ptr %11, align 8, !tbaa !142
  %13 = icmp ne ptr %12, null
  br i1 %13, label %14, label %24

14:                                               ; preds = %2
  %15 = load ptr, ptr %4, align 8, !tbaa !140
  %16 = getelementptr inbounds nuw %struct.grpc_ssl_server_credentials_options, ptr %15, i32 0, i32 0
  %17 = load i32, ptr %16, align 8, !tbaa !147
  %18 = getelementptr inbounds nuw %class.grpc_ssl_server_credentials, ptr %7, i32 0, i32 1
  %19 = getelementptr inbounds nuw %struct.grpc_ssl_server_config, ptr %18, i32 0, i32 3
  store i32 %17, ptr %19, align 8, !tbaa !148
  %20 = load ptr, ptr %4, align 8, !tbaa !140
  %21 = getelementptr inbounds nuw %struct.grpc_ssl_server_credentials_options, ptr %20, i32 0, i32 2
  %22 = load ptr, ptr %21, align 8, !tbaa !142
  %23 = getelementptr inbounds nuw %class.grpc_ssl_server_credentials, ptr %7, i32 0, i32 2
  call void @llvm.memcpy.p0.p0.i64(ptr align 8 %23, ptr align 8 %22, i64 16, i1 false), !tbaa.struct !155
  br label %48

24:                                               ; preds = %2
  %25 = load ptr, ptr %4, align 8, !tbaa !140
  %26 = getelementptr inbounds nuw %struct.grpc_ssl_server_credentials_options, ptr %25, i32 0, i32 1
  %27 = load ptr, ptr %26, align 8, !tbaa !156
  %28 = getelementptr inbounds nuw %struct.grpc_ssl_server_certificate_config, ptr %27, i32 0, i32 2
  %29 = load ptr, ptr %28, align 8, !tbaa !157
  %30 = load ptr, ptr %4, align 8, !tbaa !140
  %31 = getelementptr inbounds nuw %struct.grpc_ssl_server_credentials_options, ptr %30, i32 0, i32 1
  %32 = load ptr, ptr %31, align 8, !tbaa !156
  %33 = getelementptr inbounds nuw %struct.grpc_ssl_server_certificate_config, ptr %32, i32 0, i32 0
  %34 = load ptr, ptr %33, align 8, !tbaa !159
  %35 = load ptr, ptr %4, align 8, !tbaa !140
  %36 = getelementptr inbounds nuw %struct.grpc_ssl_server_credentials_options, ptr %35, i32 0, i32 1
  %37 = load ptr, ptr %36, align 8, !tbaa !156
  %38 = getelementptr inbounds nuw %struct.grpc_ssl_server_certificate_config, ptr %37, i32 0, i32 1
  %39 = load i64, ptr %38, align 8, !tbaa !160
  %40 = load ptr, ptr %4, align 8, !tbaa !140
  %41 = getelementptr inbounds nuw %struct.grpc_ssl_server_credentials_options, ptr %40, i32 0, i32 0
  %42 = load i32, ptr %41, align 8, !tbaa !147
  invoke void @_ZN27grpc_ssl_server_credentials12build_configEPKcP26grpc_ssl_pem_key_cert_pairm40grpc_ssl_client_certificate_request_type(ptr noundef nonnull align 8 dereferenceable(96) %7, ptr noundef %29, ptr noundef %34, i64 noundef %39, i32 noundef %42)
          to label %43 unwind label %44

43:                                               ; preds = %24
  br label %48

44:                                               ; preds = %24
  %45 = landingpad { ptr, i32 }
          cleanup
  %46 = extractvalue { ptr, i32 } %45, 0
  store ptr %46, ptr %5, align 8
  %47 = extractvalue { ptr, i32 } %45, 1
  store i32 %47, ptr %6, align 4
  call void @_ZN23grpc_server_credentialsD2Ev(ptr noundef nonnull align 8 dereferenceable(40) %7) #3
  br label %49

48:                                               ; preds = %43, %14
  ret void

49:                                               ; preds = %44
  %50 = load ptr, ptr %5, align 8
  %51 = load i32, ptr %6, align 4
  %52 = insertvalue { ptr, i32 } poison, ptr %50, 0
  %53 = insertvalue { ptr, i32 } %52, i32 %51, 1
  resume { ptr, i32 } %53
}