; Function Attrs: mustprogress uwtable
define void @_ZN27grpc_ssl_server_credentialsC2ERK35grpc_ssl_server_credentials_options(ptr noundef nonnull align 8 dereferenceable(96) initializes((0, 76), (80, 88)) %0, ptr noundef nonnull readonly align 8 captures(none) dereferenceable(24) %1) unnamed_addr #3 align 2 personality ptr @__gxx_personality_v0 {
  %3 = getelementptr inbounds nuw i8, ptr %0, i64 8
  store i64 1, ptr %3, align 8, !tbaa !3
  %4 = getelementptr inbounds nuw i8, ptr %0, i64 16
  tail call void @llvm.memset.p0.i64(ptr noundef nonnull align 8 dereferenceable(24) %4, i8 0, i64 24, i1 false)
  store ptr getelementptr inbounds nuw inrange(-16, 32) (i8, ptr @_ZTV27grpc_ssl_server_credentials, i64 16), ptr %0, align 8, !tbaa !8
  %5 = getelementptr inbounds nuw i8, ptr %0, i64 40
  %6 = getelementptr inbounds nuw i8, ptr %0, i64 72
  tail call void @llvm.memset.p0.i64(ptr noundef nonnull align 8 dereferenceable(36) %5, i8 0, i64 32, i1 false)
  store i32 1, ptr %6, align 8, !tbaa !107
  %7 = getelementptr inbounds nuw i8, ptr %0, i64 80
  store ptr null, ptr %7, align 8, !tbaa !110
  %8 = getelementptr inbounds nuw i8, ptr %1, i64 16
  %9 = load ptr, ptr %8, align 8, !tbaa !112
  %.not = icmp eq ptr %9, null
  br i1 %.not, label %13, label %10

10:                                               ; preds = %2
  %11 = load i32, ptr %1, align 8, !tbaa !116
  %12 = getelementptr inbounds nuw i8, ptr %0, i64 64
  store i32 %11, ptr %12, align 8, !tbaa !117
  tail call void @llvm.memcpy.p0.p0.i64(ptr noundef nonnull align 8 dereferenceable(16) %7, ptr noundef nonnull align 8 dereferenceable(16) %9, i64 16, i1 false), !tbaa.struct !122
  br label %29

13:                                               ; preds = %2
  %14 = getelementptr inbounds nuw i8, ptr %1, i64 8
  %15 = load ptr, ptr %14, align 8, !tbaa !123
  %16 = getelementptr inbounds nuw i8, ptr %15, i64 16
  %17 = load ptr, ptr %16, align 8, !tbaa !124
  %18 = load ptr, ptr %15, align 8, !tbaa !126
  %19 = getelementptr inbounds nuw i8, ptr %15, i64 8
  %20 = load i64, ptr %19, align 8, !tbaa !127
  %21 = load i32, ptr %1, align 8, !tbaa !116
  %22 = getelementptr inbounds nuw i8, ptr %0, i64 64
  store i32 %21, ptr %22, align 8, !tbaa !117
  %23 = invoke ptr @gpr_strdup(ptr noundef %17)
          to label %.noexc unwind label %27

.noexc:                                           ; preds = %13
  %24 = getelementptr inbounds nuw i8, ptr %0, i64 56
  store ptr %23, ptr %24, align 8, !tbaa !128
  %25 = invoke noundef ptr @_Z35grpc_convert_grpc_to_tsi_cert_pairsPK26grpc_ssl_pem_key_cert_pairm(ptr noundef %18, i64 noundef %20)
          to label %_ZN27grpc_ssl_server_credentials12build_configEPKcP26grpc_ssl_pem_key_cert_pairm40grpc_ssl_client_certificate_request_type.exit unwind label %27

_ZN27grpc_ssl_server_credentials12build_configEPKcP26grpc_ssl_pem_key_cert_pairm40grpc_ssl_client_certificate_request_type.exit: ; preds = %.noexc
  store ptr %25, ptr %5, align 8, !tbaa !129
  %26 = getelementptr inbounds nuw i8, ptr %0, i64 48
  store i64 %20, ptr %26, align 8, !tbaa !130
  br label %29

27:                                               ; preds = %.noexc, %13
  %28 = landingpad { ptr, i32 }
          cleanup
  tail call void @_ZN23grpc_server_credentialsD2Ev(ptr noundef nonnull align 8 dereferenceable(40) %0) #28
  resume { ptr, i32 } %28

29:                                               ; preds = %_ZN27grpc_ssl_server_credentials12build_configEPKcP26grpc_ssl_pem_key_cert_pairm40grpc_ssl_client_certificate_request_type.exit, %10
  ret void
}